; ModuleID = 'source-C-CXX/6/29.c'
source_filename = "source-C-CXX/6/29.c"
target datalayout = "e-m:e-p270:32:32-p271:32:32-p272:64:64-i64:64-f80:128-n8:16:32:64-S128"
target triple = "x86_64-pc-linux-gnu"

@.str = private unnamed_addr constant [3 x i8] c"%s\00", align 1

; Function Attrs: nofree nounwind sspstrong uwtable
define dso_local i32 @main() local_unnamed_addr #0 {
  %1 = alloca [300 x i8], align 16
  %2 = alloca [300 x i8], align 16
  %3 = alloca [300 x i8], align 16
  %4 = getelementptr inbounds [300 x i8], [300 x i8]* %3, i64 0, i64 0
  %5 = getelementptr inbounds [300 x i8], [300 x i8]* %1, i64 0, i64 0
  call void @llvm.lifetime.start.p0i8(i64 300, i8* nonnull %5) #5
  %6 = getelementptr inbounds [300 x i8], [300 x i8]* %2, i64 0, i64 0
  call void @llvm.lifetime.start.p0i8(i64 300, i8* nonnull %6) #5
  %7 = getelementptr inbounds [300 x i8], [300 x i8]* %3, i64 0, i64 0
  call void @llvm.lifetime.start.p0i8(i64 300, i8* nonnull %7) #5
  %8 = call i32 (i8*, ...) @__isoc99_scanf(i8* getelementptr inbounds ([3 x i8], [3 x i8]* @.str, i64 0, i64 0), i8* nonnull %5)
  %9 = call i32 (i8*, ...) @__isoc99_scanf(i8* getelementptr inbounds ([3 x i8], [3 x i8]* @.str, i64 0, i64 0), i8* nonnull %6)
  %10 = call i32 (i8*, ...) @__isoc99_scanf(i8* getelementptr inbounds ([3 x i8], [3 x i8]* @.str, i64 0, i64 0), i8* nonnull %7)
  %11 = call i64 @strlen(i8* noundef nonnull %6) #6
  %12 = trunc i64 %11 to i32
  %13 = load i8, i8* %6, align 16
  %14 = load i8, i8* %5, align 16, !tbaa !5
  %15 = icmp eq i8 %14, 0
  br i1 %15, label %65, label %16

16:                                               ; preds = %0
  %17 = icmp sgt i32 %12, 0
  br i1 %17, label %18, label %44

18:                                               ; preds = %16
  %19 = and i64 %11, 4294967295
  br label %20

20:                                               ; preds = %18, %35
  %21 = phi i64 [ 0, %18 ], [ %36, %35 ]
  %22 = phi i8 [ %14, %18 ], [ %38, %35 ]
  %23 = icmp eq i8 %22, %13
  br i1 %23, label %24, label %35

24:                                               ; preds = %20, %40
  %25 = phi i64 [ %41, %40 ], [ %21, %20 ]
  %26 = phi i64 [ %42, %40 ], [ 0, %20 ]
  %27 = getelementptr inbounds [300 x i8], [300 x i8]* %1, i64 0, i64 %25
  %28 = load i8, i8* %27, align 1, !tbaa !5
  %29 = getelementptr inbounds [300 x i8], [300 x i8]* %2, i64 0, i64 %26
  %30 = load i8, i8* %29, align 1, !tbaa !5
  %31 = icmp eq i8 %28, %30
  br i1 %31, label %40, label %32

32:                                               ; preds = %24
  %33 = trunc i64 %26 to i32
  %34 = icmp eq i32 %33, %12
  br i1 %34, label %55, label %35

35:                                               ; preds = %32, %20
  %36 = add nuw i64 %21, 1
  %37 = getelementptr inbounds [300 x i8], [300 x i8]* %1, i64 0, i64 %36
  %38 = load i8, i8* %37, align 1, !tbaa !5
  %39 = icmp eq i8 %38, 0
  br i1 %39, label %65, label %20, !llvm.loop !8

40:                                               ; preds = %24
  %41 = add nuw i64 %25, 1
  %42 = add nuw nsw i64 %26, 1
  %43 = icmp eq i64 %42, %19
  br i1 %43, label %55, label %24, !llvm.loop !10

44:                                               ; preds = %16
  %45 = icmp eq i32 %12, 0
  br i1 %45, label %46, label %65

46:                                               ; preds = %44, %50
  %47 = phi i64 [ %51, %50 ], [ 0, %44 ]
  %48 = phi i8 [ %53, %50 ], [ %14, %44 ]
  %49 = icmp eq i8 %48, %13
  br i1 %49, label %55, label %50

50:                                               ; preds = %46
  %51 = add nuw i64 %47, 1
  %52 = getelementptr inbounds [300 x i8], [300 x i8]* %1, i64 0, i64 %51
  %53 = load i8, i8* %52, align 1, !tbaa !5
  %54 = icmp eq i8 %53, 0
  br i1 %54, label %65, label %46, !llvm.loop !8

55:                                               ; preds = %46, %32, %40
  %56 = phi i64 [ %21, %40 ], [ %21, %32 ], [ %47, %46 ]
  %57 = and i64 %56, 4294967295
  %58 = getelementptr [300 x i8], [300 x i8]* %1, i64 0, i64 %57
  br i1 %17, label %59, label %61

59:                                               ; preds = %55
  %60 = and i64 %11, 4294967295
  call void @llvm.memcpy.p0i8.p0i8.i64(i8* align 1 %58, i8* nonnull align 16 %4, i64 %60, i1 false)
  br label %61

61:                                               ; preds = %59, %55
  %62 = call i32 (i8*, ...) @printf(i8* nonnull dereferenceable(1) getelementptr inbounds ([3 x i8], [3 x i8]* @.str, i64 0, i64 0), i8* nonnull %5)
  %63 = load i8, i8* %58, align 1, !tbaa !5
  %64 = icmp eq i8 %63, 0
  br i1 %64, label %65, label %67

65:                                               ; preds = %50, %35, %44, %0, %61
  %66 = call i32 (i8*, ...) @printf(i8* nonnull dereferenceable(1) getelementptr inbounds ([3 x i8], [3 x i8]* @.str, i64 0, i64 0), i8* nonnull %5)
  br label %67

67:                                               ; preds = %65, %61
  call void @llvm.lifetime.end.p0i8(i64 300, i8* nonnull %7) #5
  call void @llvm.lifetime.end.p0i8(i64 300, i8* nonnull %6) #5
  call void @llvm.lifetime.end.p0i8(i64 300, i8* nonnull %5) #5
  ret i32 0
}

; Function Attrs: argmemonly mustprogress nofree nosync nounwind willreturn
declare void @llvm.lifetime.start.p0i8(i64 immarg, i8* nocapture) #1

; Function Attrs: nofree nounwind
declare noundef i32 @__isoc99_scanf(i8* nocapture noundef readonly, ...) local_unnamed_addr #2

; Function Attrs: argmemonly mustprogress nofree nounwind readonly willreturn
declare i64 @strlen(i8* nocapture) local_unnamed_addr #3

; Function Attrs: nofree nounwind
declare noundef i32 @printf(i8* nocapture noundef readonly, ...) local_unnamed_addr #2

; Function Attrs: argmemonly mustprogress nofree nosync nounwind willreturn
declare void @llvm.lifetime.end.p0i8(i64 immarg, i8* nocapture) #1

; Function Attrs: argmemonly nofree nounwind willreturn
declare void @llvm.memcpy.p0i8.p0i8.i64(i8* noalias nocapture writeonly, i8* noalias nocapture readonly, i64, i1 immarg) #4


!llvm.module.flags = !{!0, !1, !2, !3}
!llvm.ident = !{!4}

!0 = !{i32 1, !"wchar_size", i32 4}
!1 = !{i32 7, !"PIC Level", i32 2}
!2 = !{i32 7, !"PIE Level", i32 2}
!3 = !{i32 7, !"uwtable", i32 1}
!4 = !{!"clang version 13.0.0"}
!5 = !{!6, !6, i64 0}
!6 = !{!"omnipotent char", !7, i64 0}
!7 = !{!"Simple C/C++ TBAA"}
!8 = distinct !{!8, !9}
!9 = !{!"llvm.loop.mustprogress"}
!10 = distinct !{!10, !9}
